target datalayout = "e-m:e-p270:32:32-p271:32:32-p272:64:64-i64:64-i128:128-f80:128-n8:16:32:64-S128"
target triple = "x86_64-pc-linux-gnu"

%struct._cmsMemPluginChunkType = type { ptr, ptr, ptr, ptr, ptr, ptr }

; Function Attrs: nounwind uwtable
define hidden ptr @_cmsMallocZero(ptr noundef %0, i32 noundef %1) #0 {
  %3 = alloca ptr, align 8
  %4 = alloca i32, align 4
  %5 = alloca ptr, align 8
  store ptr %0, ptr %3, align 8
  store i32 %1, ptr %4, align 4
  %6 = load ptr, ptr %3, align 8
  %7 = call ptr @_cmsContextGetClientChunk(ptr noundef %6, i32 noundef 4)
  store ptr %7, ptr %5, align 8
  %8 = load ptr, ptr %5, align 8
  %9 = getelementptr inbounds %struct._cmsMemPluginChunkType, ptr %8, i32 0, i32 1
  %10 = load ptr, ptr %9, align 8
  %11 = load ptr, ptr %3, align 8
  %12 = load i32, ptr %4, align 4
  %13 = call ptr %10(ptr noundef %11, i32 noundef %12)
  ret ptr %13
}

; Function Attrs: nounwind uwtable
define internal ptr @_cmsCallocDefaultFn(ptr noundef %0, i32 noundef %1, i32 noundef %2) #0 {
  %4 = alloca ptr, align 8
  %5 = alloca ptr, align 8
  %6 = alloca i32, align 4
  %7 = alloca i32, align 4
  %8 = alloca i32, align 4
  store ptr %0, ptr %5, align 8
  store i32 %1, ptr %6, align 4
  store i32 %2, ptr %7, align 4
  %9 = load i32, ptr %6, align 4
  %10 = load i32, ptr %7, align 4
  %11 = mul i32 %9, %10
  store i32 %11, ptr %8, align 4
  %12 = load i32, ptr %8, align 4
  %13 = icmp eq i32 %12, 0
  br i1 %13, label %14, label %15

14:                                               ; preds = %3
  store ptr null, ptr %4, align 8
  br label %38

15:                                               ; preds = %3
  %16 = load i32, ptr %6, align 4
  %17 = load i32, ptr %7, align 4
  %18 = udiv i32 -1, %17
  %19 = icmp uge i32 %16, %18
  br i1 %19, label %20, label %21

20:                                               ; preds = %15
  store ptr null, ptr %4, align 8
  br label %38

21:                                               ; preds = %15
  %22 = load i32, ptr %8, align 4
  %23 = load i32, ptr %6, align 4
  %24 = icmp ult i32 %22, %23
  br i1 %24, label %29, label %25

25:                                               ; preds = %21
  %26 = load i32, ptr %8, align 4
  %27 = load i32, ptr %7, align 4
  %28 = icmp ult i32 %26, %27
  br i1 %28, label %29, label %30

29:                                               ; preds = %25, %21
  store ptr null, ptr %4, align 8
  br label %38

30:                                               ; preds = %25
  %31 = load i32, ptr %8, align 4
  %32 = icmp ugt i32 %31, 536870912
  br i1 %32, label %33, label %34

33:                                               ; preds = %30
  store ptr null, ptr %4, align 8
  br label %38

34:                                               ; preds = %30
  %35 = load ptr, ptr %5, align 8
  %36 = load i32, ptr %8, align 4
  %37 = call ptr @_cmsMallocZero(ptr noundef %35, i32 noundef %36)
  store ptr %37, ptr %4, align 8
  br label %38

38:                                               ; preds = %34, %33, %29, %20, %14
  %39 = load ptr, ptr %4, align 8
  ret ptr %39
}