; Function Attrs: nounwind uwtable
define internal ptr @_cmsCallocDefaultFn(ptr noundef %0, i32 noundef %1, i32 noundef %2) #6 {
  %4 = mul i32 %2, %1
  %5 = icmp eq i32 %4, 0
  br i1 %5, label %17, label %6

6:                                                ; preds = %3
  %7 = udiv i32 -1, %2
  %.not = icmp ugt i32 %7, %1
  br i1 %.not, label %8, label %17

8:                                                ; preds = %6
  %9 = icmp ult i32 %4, %1
  %10 = icmp ult i32 %4, %2
  %or.cond = or i1 %9, %10
  %11 = icmp ugt i32 %4, 536870912
  %or.cond14 = or i1 %11, %or.cond
  br i1 %or.cond14, label %17, label %12

12:                                               ; preds = %8
  %13 = tail call ptr @_cmsContextGetClientChunk(ptr noundef %0, i32 noundef 4) #20
  %14 = getelementptr inbounds i8, ptr %13, i64 8
  %15 = load ptr, ptr %14, align 8
  %16 = tail call ptr %15(ptr noundef %0, i32 noundef %4) #20
  br label %17

17:                                               ; preds = %8, %6, %3, %12
  %.0 = phi ptr [ %16, %12 ], [ null, %3 ], [ null, %6 ], [ null, %8 ]
  ret ptr %.0
}